; Function Attrs: mustprogress uwtable
define hidden void @_ZN4cvc58internal3smt21SmtDriverDeepRestartsC2ERNS0_3EnvERNS1_9SmtSolverEPNS1_14ContextManagerE(ptr noundef nonnull align 8 dereferenceable(288) %this, ptr noundef nonnull align 8 dereferenceable(576) %env, ptr noundef nonnull align 8 dereferenceable(1216) %smt, ptr noundef %ctx) unnamed_addr #3 align 2 {
entry:
  tail call void @_ZN4cvc58internal3smt9SmtDriverC2ERNS0_3EnvERNS1_9SmtSolverEPNS1_14ContextManagerE(ptr noundef nonnull align 8 dereferenceable(200) %this, ptr noundef nonnull align 8 dereferenceable(576) %env, ptr noundef nonnull align 8 dereferenceable(1216) %smt, ptr noundef %ctx)
  store ptr getelementptr inbounds ({ [6 x ptr] }, ptr @_ZTVN4cvc58internal3smt21SmtDriverDeepRestartsE, i64 0, i32 0, i64 2), ptr %this, align 8
  %d_firstTime = getelementptr inbounds i8, ptr %this, i64 200
  store i8 1, ptr %d_firstTime, align 8
  %d_zll = getelementptr inbounds i8, ptr %this, i64 208
  tail call void @llvm.memset.p0.i64(ptr noundef nonnull align 8 dereferenceable(24) %d_zll, i8 0, i64 24, i1 false)
  %d_allLearnedLits = getelementptr inbounds i8, ptr %this, i64 232
  %_M_single_bucket.i.i = getelementptr inbounds i8, ptr %this, i64 280
  store ptr %_M_single_bucket.i.i, ptr %d_allLearnedLits, align 8
  %_M_bucket_count.i.i = getelementptr inbounds i8, ptr %this, i64 240
  store i64 1, ptr %_M_bucket_count.i.i, align 8
  %_M_before_begin.i.i = getelementptr inbounds i8, ptr %this, i64 248
  %_M_rehash_policy.i.i = getelementptr inbounds i8, ptr %this, i64 264
  tail call void @llvm.memset.p0.i64(ptr noundef nonnull align 8 dereferenceable(16) %_M_before_begin.i.i, i8 0, i64 16, i1 false)
  store float 1.000000e+00, ptr %_M_rehash_policy.i.i, align 8
  %_M_next_resize.i.i.i = getelementptr inbounds i8, ptr %this, i64 272
  tail call void @llvm.memset.p0.i64(ptr noundef nonnull align 8 dereferenceable(16) %_M_next_resize.i.i.i, i8 0, i64 16, i1 false)
  ret void
}